target datalayout = "e-m:e-p270:32:32-p271:32:32-p272:64:64-i64:64-i128:128-f80:128-n8:16:32:64-S128"
target triple = "x86_64-pc-linux-gnu"

%struct.grpc_slice = type { ptr, %"union.grpc_slice::grpc_slice_data" }
%"union.grpc_slice::grpc_slice_data" = type { %"struct.grpc_slice::grpc_slice_data::grpc_slice_refcounted", [8 x i8] }
%"struct.grpc_slice::grpc_slice_data::grpc_slice_refcounted" = type { i64, ptr }
%"struct.grpc_slice::grpc_slice_data::grpc_slice_inlined" = type { i8, [23 x i8] }

; Function Attrs: mustprogress nounwind uwtable
define i32 @grpc_slice_chr(ptr noundef byval(%struct.grpc_slice) align 8 %0, i8 noundef signext %1) #7 {
  %3 = alloca i8, align 1
  %4 = alloca ptr, align 8
  %5 = alloca ptr, align 8
  store i8 %1, ptr %3, align 1, !tbaa !9
  call void @llvm.lifetime.start.p0(i64 8, ptr %4) #3
  %6 = getelementptr inbounds nuw %struct.grpc_slice, ptr %0, i32 0, i32 0
  %7 = load ptr, ptr %6, align 8, !tbaa !3
  %8 = icmp ne ptr %7, null
  br i1 %8, label %9, label %13

9:                                                ; preds = %2
  %10 = getelementptr inbounds nuw %struct.grpc_slice, ptr %0, i32 0, i32 1
  %11 = getelementptr inbounds nuw %"struct.grpc_slice::grpc_slice_data::grpc_slice_refcounted", ptr %10, i32 0, i32 1
  %12 = load ptr, ptr %11, align 8, !tbaa !9
  br label %17

13:                                               ; preds = %2
  %14 = getelementptr inbounds nuw %struct.grpc_slice, ptr %0, i32 0, i32 1
  %15 = getelementptr inbounds nuw %"struct.grpc_slice::grpc_slice_data::grpc_slice_inlined", ptr %14, i32 0, i32 1
  %16 = getelementptr inbounds [23 x i8], ptr %15, i64 0, i64 0
  br label %17

17:                                               ; preds = %13, %9
  %18 = phi ptr [ %12, %9 ], [ %16, %13 ]
  store ptr %18, ptr %4, align 8, !tbaa !10
  call void @llvm.lifetime.start.p0(i64 8, ptr %5) #3
  %19 = load ptr, ptr %4, align 8, !tbaa !10
  %20 = load i8, ptr %3, align 1, !tbaa !9
  %21 = sext i8 %20 to i32
  %22 = getelementptr inbounds nuw %struct.grpc_slice, ptr %0, i32 0, i32 0
  %23 = load ptr, ptr %22, align 8, !tbaa !3
  %24 = icmp ne ptr %23, null
  br i1 %24, label %25, label %29

25:                                               ; preds = %17
  %26 = getelementptr inbounds nuw %struct.grpc_slice, ptr %0, i32 0, i32 1
  %27 = getelementptr inbounds nuw %"struct.grpc_slice::grpc_slice_data::grpc_slice_refcounted", ptr %26, i32 0, i32 0
  %28 = load i64, ptr %27, align 8, !tbaa !9
  br label %34

29:                                               ; preds = %17
  %30 = getelementptr inbounds nuw %struct.grpc_slice, ptr %0, i32 0, i32 1
  %31 = getelementptr inbounds nuw %"struct.grpc_slice::grpc_slice_data::grpc_slice_inlined", ptr %30, i32 0, i32 0
  %32 = load i8, ptr %31, align 8, !tbaa !9
  %33 = zext i8 %32 to i64
  br label %34

34:                                               ; preds = %29, %25
  %35 = phi i64 [ %28, %25 ], [ %33, %29 ]
  %36 = call noundef ptr @memchr(ptr noundef %19, i32 noundef %21, i64 noundef %35) #19
  store ptr %36, ptr %5, align 8, !tbaa !10
  %37 = load ptr, ptr %5, align 8, !tbaa !10
  %38 = icmp eq ptr %37, null
  br i1 %38, label %39, label %40

39:                                               ; preds = %34
  br label %47

40:                                               ; preds = %34
  %41 = load ptr, ptr %5, align 8, !tbaa !10
  %42 = load ptr, ptr %4, align 8, !tbaa !10
  %43 = ptrtoint ptr %41 to i64
  %44 = ptrtoint ptr %42 to i64
  %45 = sub i64 %43, %44
  %46 = trunc i64 %45 to i32
  br label %47

47:                                               ; preds = %40, %39
  %48 = phi i32 [ -1, %39 ], [ %46, %40 ]
  call void @llvm.lifetime.end.p0(i64 8, ptr %5) #3
  call void @llvm.lifetime.end.p0(i64 8, ptr %4) #3
  ret i32 %48
}