; Function Attrs: mustprogress nofree nounwind willreturn memory(read, inaccessiblemem: none) uwtable
define noundef i32 @grpc_slice_chr(ptr noundef byval(%struct.grpc_slice) align 8 %0, i8 noundef signext %1) local_unnamed_addr #13 {
  %3 = load ptr, ptr %0, align 8, !tbaa !3
  %.not = icmp eq ptr %3, null
  %4 = getelementptr inbounds nuw i8, ptr %0, i64 8
  %5 = getelementptr inbounds nuw i8, ptr %0, i64 16
  %6 = load ptr, ptr %5, align 8
  %7 = getelementptr inbounds nuw i8, ptr %0, i64 9
  %8 = select i1 %.not, ptr %7, ptr %6
  %9 = sext i8 %1 to i32
  %10 = load i64, ptr %4, align 8
  %11 = and i64 %10, 255
  %12 = select i1 %.not, i64 %11, i64 %10
  %13 = call noundef ptr @memchr(ptr noundef %8, i32 noundef %9, i64 noundef %12) #29
  %14 = icmp eq ptr %13, null
  %15 = ptrtoint ptr %13 to i64
  %16 = ptrtoint ptr %8 to i64
  %17 = sub i64 %15, %16
  %18 = trunc i64 %17 to i32
  %19 = select i1 %14, i32 -1, i32 %18
  ret i32 %19
}